target datalayout = "e-m:e-p270:32:32-p271:32:32-p272:64:64-i64:64-i128:128-f80:128-n8:16:32:64-S128"
target triple = "x86_64-pc-linux-gnu"

%"class.std::basic_string_view" = type { i64, ptr }
%"struct.nix::Value" = type { i32, %union.anon.35 }
%union.anon.35 = type { %"struct.nix::Value::StringWithContext" }
%"struct.nix::Value::StringWithContext" = type { ptr, ptr }
%"class.std::optional.265" = type { %"struct.std::_Optional_base.266" }
%"struct.std::_Optional_base.266" = type { %"struct.std::_Optional_payload.268" }
%"struct.std::_Optional_payload.268" = type { %"struct.std::_Optional_payload_base.base.270", [7 x i8] }
%"struct.std::_Optional_payload_base.base.270" = type <{ %"union.std::_Optional_payload_base<long>::_Storage", i8 }>
%"union.std::_Optional_payload_base<long>::_Storage" = type { i64 }
%"struct.std::_Optional_payload_base.269" = type <{ %"union.std::_Optional_payload_base<long>::_Storage", i8, [7 x i8] }>

; Function Attrs: mustprogress nounwind uwtable
define linkonce_odr noundef nonnull align 8 dereferenceable(8) ptr @_ZNSt22_Optional_payload_baseIlE6_M_getEv(ptr noundef nonnull align 8 dereferenceable(9) %0) #2 comdat align 2 {
  %2 = alloca ptr, align 8
  store ptr %0, ptr %2, align 8
  %3 = load ptr, ptr %2, align 8
  %4 = getelementptr inbounds %"struct.std::_Optional_payload_base.269", ptr %3, i32 0, i32 0
  ret ptr %4
}

; Function Attrs: mustprogress nounwind uwtable
define linkonce_odr noundef nonnull align 8 dereferenceable(8) ptr @_ZNSt19_Optional_base_implIlSt14_Optional_baseIlLb1ELb1EEE6_M_getEv(ptr noundef nonnull align 1 dereferenceable(1) %0) #2 comdat align 2 {
  %2 = alloca ptr, align 8
  store ptr %0, ptr %2, align 8
  %3 = load ptr, ptr %2, align 8
  br label %4

4:                                                ; preds = %1
  br label %5

5:                                                ; preds = %4
  br label %6

6:                                                ; preds = %5
  %7 = getelementptr inbounds %"struct.std::_Optional_base.266", ptr %3, i32 0, i32 0
  %8 = call noundef nonnull align 8 dereferenceable(8) ptr @_ZNSt22_Optional_payload_baseIlE6_M_getEv(ptr noundef nonnull align 8 dereferenceable(9) %7) #1
  ret ptr %8
}

; Function Attrs: mustprogress nounwind uwtable
define linkonce_odr noundef zeroext i1 @_ZNKSt19_Optional_base_implIlSt14_Optional_baseIlLb1ELb1EEE13_M_is_engagedEv(ptr noundef nonnull align 1 dereferenceable(1) %0) #2 comdat align 2 {
  %2 = alloca ptr, align 8
  store ptr %0, ptr %2, align 8
  %3 = load ptr, ptr %2, align 8
  %4 = getelementptr inbounds %"struct.std::_Optional_base.266", ptr %3, i32 0, i32 0
  %5 = getelementptr inbounds %"struct.std::_Optional_payload_base.269", ptr %4, i32 0, i32 1
  %6 = load i8, ptr %5, align 8
  %7 = trunc i8 %6 to i1
  ret i1 %7
}

; Function Attrs: mustprogress nounwind uwtable
define linkonce_odr noundef i64 @_ZNSt11char_traitsIcE6lengthEPKc(ptr noundef %0) #2 comdat align 2 {
  %2 = alloca ptr, align 8
  store ptr %0, ptr %2, align 8
  %3 = load ptr, ptr %2, align 8
  %4 = call i64 @strlen(ptr noundef %3) #1
  ret i64 %4
}

; Function Attrs: mustprogress nounwind uwtable
define linkonce_odr noundef nonnull align 8 dereferenceable(8) ptr @_ZNRSt8optionalIlEdeEv(ptr noundef nonnull align 8 dereferenceable(16) %0) #2 comdat align 2 {
  %2 = alloca ptr, align 8
  store ptr %0, ptr %2, align 8
  %3 = load ptr, ptr %2, align 8
  %4 = call noundef nonnull align 8 dereferenceable(8) ptr @_ZNSt19_Optional_base_implIlSt14_Optional_baseIlLb1ELb1EEE6_M_getEv(ptr noundef nonnull align 1 dereferenceable(1) %3) #1
  ret ptr %4
}

; Function Attrs: mustprogress nounwind uwtable
define linkonce_odr noundef zeroext i1 @_ZNKSt8optionalIlEcvbEv(ptr noundef nonnull align 8 dereferenceable(16) %0) #2 comdat align 2 {
  %2 = alloca ptr, align 8
  store ptr %0, ptr %2, align 8
  %3 = load ptr, ptr %2, align 8
  %4 = call noundef zeroext i1 @_ZNKSt19_Optional_base_implIlSt14_Optional_baseIlLb1ELb1EEE13_M_is_engagedEv(ptr noundef nonnull align 1 dereferenceable(1) %3) #1
  ret i1 %4
}

; Function Attrs: mustprogress nounwind uwtable
define linkonce_odr void @_ZNSt17basic_string_viewIcSt11char_traitsIcEEC2EPKc(ptr noundef nonnull align 8 dereferenceable(16) %0, ptr noundef nonnull %1) unnamed_addr #2 comdat align 2 {
  %3 = alloca ptr, align 8
  %4 = alloca ptr, align 8
  store ptr %0, ptr %3, align 8
  store ptr %1, ptr %4, align 8
  %5 = load ptr, ptr %3, align 8
  %6 = getelementptr inbounds %"class.std::basic_string_view", ptr %5, i32 0, i32 0
  %7 = load ptr, ptr %4, align 8
  %8 = call noundef i64 @_ZNSt11char_traitsIcE6lengthEPKc(ptr noundef %7)
  store i64 %8, ptr %6, align 8
  %9 = getelementptr inbounds %"class.std::basic_string_view", ptr %5, i32 0, i32 1
  %10 = load ptr, ptr %4, align 8
  store ptr %10, ptr %9, align 8
  ret void
}

; Function Attrs: mustprogress nounwind uwtable
define linkonce_odr noundef ptr @_ZNK3nix5Value5c_strEv(ptr noundef nonnull align 8 dereferenceable(24) %0) #2 comdat align 2 {
  %2 = alloca ptr, align 8
  store ptr %0, ptr %2, align 8
  %3 = load ptr, ptr %2, align 8
  %4 = getelementptr inbounds %"struct.nix::Value", ptr %3, i32 0, i32 1
  %5 = getelementptr inbounds %"struct.nix::Value::StringWithContext", ptr %4, i32 0, i32 0
  %6 = load ptr, ptr %5, align 8
  ret ptr %6
}

; Function Attrs: mustprogress nounwind uwtable
define linkonce_odr noundef i32 @_ZNK3nix5Value4typeEb(ptr noundef nonnull align 8 dereferenceable(24) %0, i1 noundef zeroext %1) #2 comdat align 2 {
  %3 = alloca i32, align 4
  %4 = alloca ptr, align 8
  %5 = alloca i8, align 1
  store ptr %0, ptr %4, align 8
  %6 = zext i1 %1 to i8
  store i8 %6, ptr %5, align 1
  %7 = load ptr, ptr %4, align 8
  %8 = getelementptr inbounds %"struct.nix::Value", ptr %7, i32 0, i32 0
  %9 = load i32, ptr %8, align 8
  switch i32 %9, label %21 [
    i32 1, label %10
    i32 2, label %11
    i32 3, label %12
    i32 4, label %13
    i32 5, label %14
    i32 6, label %15
    i32 7, label %16
    i32 8, label %16
    i32 9, label %16
    i32 12, label %17
    i32 13, label %17
    i32 14, label %17
    i32 15, label %18
    i32 16, label %19
    i32 10, label %20
    i32 11, label %20
  ]

10:                                               ; preds = %2
  store i32 1, ptr %3, align 4
  br label %26

11:                                               ; preds = %2
  store i32 3, ptr %3, align 4
  br label %26

12:                                               ; preds = %2
  store i32 4, ptr %3, align 4
  br label %26

13:                                               ; preds = %2
  store i32 5, ptr %3, align 4
  br label %26

14:                                               ; preds = %2
  store i32 6, ptr %3, align 4
  br label %26

15:                                               ; preds = %2
  store i32 7, ptr %3, align 4
  br label %26

16:                                               ; preds = %2, %2, %2
  store i32 8, ptr %3, align 4
  br label %26

17:                                               ; preds = %2, %2, %2
  store i32 9, ptr %3, align 4
  br label %26

18:                                               ; preds = %2
  store i32 10, ptr %3, align 4
  br label %26

19:                                               ; preds = %2
  store i32 2, ptr %3, align 4
  br label %26

20:                                               ; preds = %2, %2
  store i32 0, ptr %3, align 4
  br label %26

21:                                               ; preds = %2
  %22 = load i8, ptr %5, align 1
  %23 = trunc i8 %22 to i1
  br i1 %23, label %24, label %25

24:                                               ; preds = %21
  store i32 0, ptr %3, align 4
  br label %26

25:                                               ; preds = %21
  call void @abort() #22
  unreachable

26:                                               ; preds = %24, %20, %19, %18, %17, %16, %15, %14, %13, %12, %11, %10
  %27 = load i32, ptr %3, align 4
  ret i32 %27
}

; Function Attrs: mustprogress uwtable
define noundef i64 @_ZN3nix11PackageInfo12queryMetaIntERKNSt7__cxx1112basic_stringIcSt11char_traitsIcESaIcEEEl(ptr noundef nonnull align 8 dereferenceable(296) %0, ptr noundef nonnull align 8 dereferenceable(32) %1, i64 noundef %2) #5 align 2 {
  %4 = alloca i64, align 8
  %5 = alloca ptr, align 8
  %6 = alloca ptr, align 8
  %7 = alloca i64, align 8
  %8 = alloca ptr, align 8
  %9 = alloca %"class.std::optional.265", align 8
  %10 = alloca %"class.std::basic_string_view", align 8
  store ptr %0, ptr %5, align 8
  store ptr %1, ptr %6, align 8
  store i64 %2, ptr %7, align 8
  %11 = load ptr, ptr %5, align 8
  %12 = load ptr, ptr %6, align 8
  %13 = call noundef ptr @_ZN3nix11PackageInfo9queryMetaERKNSt7__cxx1112basic_stringIcSt11char_traitsIcESaIcEEE(ptr noundef nonnull align 8 dereferenceable(296) %11, ptr noundef nonnull align 8 dereferenceable(32) %12)
  store ptr %13, ptr %8, align 8
  %14 = load ptr, ptr %8, align 8
  %15 = icmp ne ptr %14, null
  br i1 %15, label %18, label %16

16:                                               ; preds = %3
  %17 = load i64, ptr %7, align 8
  store i64 %17, ptr %4, align 8
  br label %51

18:                                               ; preds = %3
  %19 = load ptr, ptr %8, align 8
  %20 = call noundef i32 @_ZNK3nix5Value4typeEb(ptr noundef nonnull align 8 dereferenceable(24) %19, i1 noundef zeroext false)
  %21 = icmp eq i32 %20, 1
  br i1 %21, label %22, label %26

22:                                               ; preds = %18
  %23 = load ptr, ptr %8, align 8
  %24 = getelementptr inbounds %"struct.nix::Value", ptr %23, i32 0, i32 1
  %25 = load i64, ptr %24, align 8
  store i64 %25, ptr %4, align 8
  br label %51

26:                                               ; preds = %18
  %27 = load ptr, ptr %8, align 8
  %28 = call noundef i32 @_ZNK3nix5Value4typeEb(ptr noundef nonnull align 8 dereferenceable(24) %27, i1 noundef zeroext false)
  %29 = icmp eq i32 %28, 4
  br i1 %29, label %30, label %49

30:                                               ; preds = %26
  %31 = load ptr, ptr %8, align 8
  %32 = call noundef ptr @_ZNK3nix5Value5c_strEv(ptr noundef nonnull align 8 dereferenceable(24) %31)
  call void @_ZNSt17basic_string_viewIcSt11char_traitsIcEEC2EPKc(ptr noundef nonnull align 8 dereferenceable(16) %10, ptr noundef %32) #1
  %33 = getelementptr inbounds { i64, ptr }, ptr %10, i32 0, i32 0
  %34 = load i64, ptr %33, align 8
  %35 = getelementptr inbounds { i64, ptr }, ptr %10, i32 0, i32 1
  %36 = load ptr, ptr %35, align 8
  %37 = call { i64, i8 } @_ZN3nix10string2IntIlEESt8optionalIT_ESt17basic_string_viewIcSt11char_traitsIcEE(i64 %34, ptr %36)
  %38 = getelementptr inbounds %"class.std::optional.265", ptr %9, i32 0, i32 0
  %39 = getelementptr inbounds %"struct.std::_Optional_base.266", ptr %38, i32 0, i32 0
  %40 = getelementptr inbounds { i64, i8 }, ptr %39, i32 0, i32 0
  %41 = extractvalue { i64, i8 } %37, 0
  store i64 %41, ptr %40, align 8
  %42 = getelementptr inbounds { i64, i8 }, ptr %39, i32 0, i32 1
  %43 = extractvalue { i64, i8 } %37, 1
  store i8 %43, ptr %42, align 8
  %44 = call noundef zeroext i1 @_ZNKSt8optionalIlEcvbEv(ptr noundef nonnull align 8 dereferenceable(16) %9) #1
  br i1 %44, label %45, label %48

45:                                               ; preds = %30
  %46 = call noundef nonnull align 8 dereferenceable(8) ptr @_ZNRSt8optionalIlEdeEv(ptr noundef nonnull align 8 dereferenceable(16) %9) #1
  %47 = load i64, ptr %46, align 8
  store i64 %47, ptr %4, align 8
  br label %51

48:                                               ; preds = %30
  br label %49

49:                                               ; preds = %48, %26
  %50 = load i64, ptr %7, align 8
  store i64 %50, ptr %4, align 8
  br label %51

51:                                               ; preds = %49, %45, %22, %16
  %52 = load i64, ptr %4, align 8
  ret i64 %52
}