; Function Attrs: mustprogress uwtable
define noundef i64 @_ZN3nix11PackageInfo12queryMetaIntERKNSt7__cxx1112basic_stringIcSt11char_traitsIcESaIcEEEl(ptr noundef nonnull align 8 dereferenceable(296) %0, ptr nocapture noundef nonnull readonly align 8 dereferenceable(32) %1, i64 noundef %2) local_unnamed_addr #5 align 2 {
  %4 = tail call noundef ptr @_ZN3nix11PackageInfo9queryMetaERKNSt7__cxx1112basic_stringIcSt11char_traitsIcESaIcEEE(ptr noundef nonnull align 8 dereferenceable(296) %0, ptr noundef nonnull align 8 dereferenceable(32) %1)
  %.not = icmp eq ptr %4, null
  br i1 %.not, label %_ZNK3nix5Value4typeEb.exit11.thread, label %5

5:                                                ; preds = %3
  %6 = load i32, ptr %4, align 8
  switch i32 %6, label %7 [
    i32 1, label %_ZNK3nix5Value4typeEb.exit
    i32 2, label %_ZNK3nix5Value4typeEb.exit11.thread
    i32 3, label %_ZNK3nix5Value4typeEb.exit11
    i32 4, label %_ZNK3nix5Value4typeEb.exit11.thread
    i32 5, label %_ZNK3nix5Value4typeEb.exit11.thread
    i32 6, label %_ZNK3nix5Value4typeEb.exit11.thread
    i32 16, label %_ZNK3nix5Value4typeEb.exit11.thread
    i32 15, label %_ZNK3nix5Value4typeEb.exit11.thread
    i32 11, label %_ZNK3nix5Value4typeEb.exit11.thread
    i32 10, label %_ZNK3nix5Value4typeEb.exit11.thread
    i32 14, label %_ZNK3nix5Value4typeEb.exit11.thread
    i32 13, label %_ZNK3nix5Value4typeEb.exit11.thread
    i32 12, label %_ZNK3nix5Value4typeEb.exit11.thread
    i32 9, label %_ZNK3nix5Value4typeEb.exit11.thread
    i32 7, label %_ZNK3nix5Value4typeEb.exit11.thread
    i32 8, label %_ZNK3nix5Value4typeEb.exit11.thread
  ]

7:                                                ; preds = %5
  tail call void @abort() #31
  unreachable

_ZNK3nix5Value4typeEb.exit:                       ; preds = %5
  %8 = getelementptr inbounds i8, ptr %4, i64 8
  %9 = load i64, ptr %8, align 8
  br label %_ZNK3nix5Value4typeEb.exit11.thread

_ZNK3nix5Value4typeEb.exit11:                     ; preds = %5
  %10 = getelementptr inbounds i8, ptr %4, i64 8
  %11 = load ptr, ptr %10, align 8
  %12 = tail call noundef i64 @strlen(ptr noundef nonnull dereferenceable(1) %11) #28
  %13 = tail call { i64, i8 } @_ZN3nix10string2IntIlEESt8optionalIT_ESt17basic_string_viewIcSt11char_traitsIcEE(i64 %12, ptr %11)
  %14 = extractvalue { i64, i8 } %13, 0
  %15 = extractvalue { i64, i8 } %13, 1
  %16 = and i8 %15, 1
  %.not22 = icmp eq i8 %16, 0
  %spec.select = select i1 %.not22, i64 %2, i64 %14
  br label %_ZNK3nix5Value4typeEb.exit11.thread

_ZNK3nix5Value4typeEb.exit11.thread:              ; preds = %_ZNK3nix5Value4typeEb.exit11, %5, %5, %5, %5, %5, %5, %5, %5, %5, %5, %5, %5, %5, %5, %3, %_ZNK3nix5Value4typeEb.exit
  %.0 = phi i64 [ %9, %_ZNK3nix5Value4typeEb.exit ], [ %2, %3 ], [ %2, %5 ], [ %2, %5 ], [ %2, %5 ], [ %2, %5 ], [ %2, %5 ], [ %2, %5 ], [ %2, %5 ], [ %2, %5 ], [ %2, %5 ], [ %2, %5 ], [ %2, %5 ], [ %2, %5 ], [ %2, %5 ], [ %2, %5 ], [ %spec.select, %_ZNK3nix5Value4typeEb.exit11 ]
  ret i64 %.0
}